; Function Attrs: mustprogress nounwind uwtable
define void @_ZN6icu_7712StringSearchD2Ev(ptr noundef nonnull align 8 dereferenceable(160) %0) unnamed_addr #5 align 2 personality ptr @__gxx_personality_v0 {
  %2 = getelementptr inbounds nuw i8, ptr %0, i64 152
  %3 = load ptr, ptr %2, align 8, !tbaa !9
  %.not = icmp eq ptr %3, null
  br i1 %.not, label %7, label %4

4:                                                ; preds = %1
  invoke void @usearch_close_77(ptr noundef nonnull %3)
          to label %5 unwind label %9

5:                                                ; preds = %4
  %6 = getelementptr inbounds nuw i8, ptr %0, i64 8
  store ptr null, ptr %6, align 8, !tbaa !24
  br label %7

7:                                                ; preds = %5, %1
  %8 = getelementptr inbounds nuw i8, ptr %0, i64 88
  tail call void @_ZN6icu_7713UnicodeStringD1Ev(ptr noundef nonnull align 8 dereferenceable(64) %8) #9
  tail call void @_ZN6icu_7714SearchIteratorD2Ev(ptr noundef nonnull align 8 dereferenceable(88) %0) #9
  ret void

9:                                                ; preds = %4
  %10 = landingpad { ptr, i32 }
          catch ptr null
  %11 = extractvalue { ptr, i32 } %10, 0
  tail call void @__clang_call_terminate(ptr %11) #10
  unreachable
}